CCS PCM C Compiler, Version 5.015, 5967               20-May-25 23:28

               Filename:   E:\AUXILIAR\SEM 1-2025 AUX MICRO\CLASE_10\termocupla k.lst

               ROM used:   1128 words (14%)
                           Largest free fragment is 2048
               RAM used:   9 (2%) at main() level
                           38 (10%) worst case
               Stack used: 5 locations
               Stack size: 8

*
0000:  MOVLW  03
0001:  MOVWF  0A
0002:  GOTO   3E7
0003:  NOP
.................... #include <16f877a.h>                // Incluye las definiciones del PIC16F877A 
.................... //////////// Standard Header file for the PIC16F877A device //////////////// 
.................... /////////////////////////////////////////////////////////////////////////// 
.................... ////        (C) Copyright 1996, 2013 Custom Computer Services          //// 
.................... //// This source code may only be used by licensed users of the CCS C  //// 
.................... //// compiler.  This source code may only be distributed to other      //// 
.................... //// licensed users of the CCS C compiler.  No other use, reproduction //// 
.................... //// or distribution is permitted without written permission.          //// 
.................... //// Derivative programs created using this software in object code    //// 
.................... //// form are not restricted in any way.                               //// 
.................... /////////////////////////////////////////////////////////////////////////// 
.................... #device PIC16F877A 
0004:  DATA 0C,00
0005:  DATA D4,32
0006:  DATA 6D,38
0007:  DATA 65,39
0008:  DATA 61,3A
0009:  DATA 75,39
000A:  DATA 61,00
000B:  DATA 41,22
000C:  DATA 43,1D
000D:  DATA 25,1A
000E:  DATA CC,3A
000F:  DATA 20,2A
0010:  DATA BA,12
0011:  DATA 34,26
0012:  DATA 64,00
*
0164:  MOVF   0B,W
0165:  MOVWF  25
0166:  BCF    0B.7
0167:  BSF    03.5
0168:  BSF    03.6
0169:  BSF    0C.7
016A:  BSF    0C.0
016B:  NOP
016C:  NOP
016D:  BCF    03.5
016E:  BCF    03.6
016F:  BTFSC  25.7
0170:  BSF    0B.7
0171:  BSF    03.6
0172:  MOVF   0C,W
0173:  ANDLW  7F
0174:  BTFSC  03.2
0175:  GOTO   1B8
0176:  BCF    03.6
0177:  MOVWF  25
0178:  BSF    03.6
0179:  MOVF   0D,W
017A:  BCF    03.6
017B:  MOVWF  26
017C:  BSF    03.6
017D:  MOVF   0F,W
017E:  BCF    03.6
017F:  MOVWF  27
0180:  MOVF   25,W
0181:  MOVWF  2E
0182:  CALL   138
0183:  MOVF   26,W
0184:  BSF    03.6
0185:  MOVWF  0D
0186:  BCF    03.6
0187:  MOVF   27,W
0188:  BSF    03.6
0189:  MOVWF  0F
018A:  BCF    03.6
018B:  MOVF   0B,W
018C:  MOVWF  28
018D:  BCF    0B.7
018E:  BSF    03.5
018F:  BSF    03.6
0190:  BSF    0C.7
0191:  BSF    0C.0
0192:  NOP
0193:  NOP
0194:  BCF    03.5
0195:  BCF    03.6
0196:  BTFSC  28.7
0197:  BSF    0B.7
0198:  BSF    03.6
0199:  RLF    0C,W
019A:  RLF    0E,W
019B:  ANDLW  7F
019C:  BTFSC  03.2
019D:  GOTO   1B8
019E:  BCF    03.6
019F:  MOVWF  25
01A0:  BSF    03.6
01A1:  MOVF   0D,W
01A2:  BCF    03.6
01A3:  MOVWF  26
01A4:  BSF    03.6
01A5:  MOVF   0F,W
01A6:  BCF    03.6
01A7:  MOVWF  27
01A8:  MOVF   25,W
01A9:  MOVWF  2E
01AA:  CALL   138
01AB:  MOVF   26,W
01AC:  BSF    03.6
01AD:  MOVWF  0D
01AE:  BCF    03.6
01AF:  MOVF   27,W
01B0:  BSF    03.6
01B1:  MOVWF  0F
01B2:  INCF   0D,F
01B3:  BTFSC  03.2
01B4:  INCF   0F,F
01B5:  BCF    03.6
01B6:  GOTO   164
01B7:  BSF    03.6
01B8:  BCF    03.6
01B9:  RETURN
*
01E8:  MOVLW  20
01E9:  MOVWF  41
01EA:  CLRF   3D
01EB:  CLRF   3E
01EC:  CLRF   3F
01ED:  CLRF   40
01EE:  MOVF   38,W
01EF:  MOVWF  7A
01F0:  MOVF   37,W
01F1:  MOVWF  79
01F2:  MOVF   36,W
01F3:  MOVWF  78
01F4:  MOVF   35,W
01F5:  MOVWF  77
01F6:  BCF    03.0
01F7:  BTFSS  77.0
01F8:  GOTO   207
01F9:  MOVF   39,W
01FA:  ADDWF  3D,F
01FB:  MOVF   3A,W
01FC:  BTFSC  03.0
01FD:  INCFSZ 3A,W
01FE:  ADDWF  3E,F
01FF:  MOVF   3B,W
0200:  BTFSC  03.0
0201:  INCFSZ 3B,W
0202:  ADDWF  3F,F
0203:  MOVF   3C,W
0204:  BTFSC  03.0
0205:  INCFSZ 3C,W
0206:  ADDWF  40,F
0207:  RRF    40,F
0208:  RRF    3F,F
0209:  RRF    3E,F
020A:  RRF    3D,F
020B:  RRF    7A,F
020C:  RRF    79,F
020D:  RRF    78,F
020E:  RRF    77,F
020F:  DECFSZ 41,F
0210:  GOTO   1F6
*
0235:  BTFSC  03.1
0236:  GOTO   23A
0237:  MOVLW  3D
0238:  MOVWF  04
0239:  BCF    03.7
023A:  CLRF   77
023B:  CLRF   78
023C:  CLRF   79
023D:  CLRF   7A
023E:  CLRF   3D
023F:  CLRF   3E
0240:  CLRF   3F
0241:  CLRF   40
0242:  MOVF   3C,W
0243:  IORWF  3B,W
0244:  IORWF  3A,W
0245:  IORWF  39,W
0246:  BTFSC  03.2
0247:  GOTO   278
0248:  MOVLW  20
0249:  MOVWF  41
024A:  BCF    03.0
024B:  RLF    35,F
024C:  RLF    36,F
024D:  RLF    37,F
024E:  RLF    38,F
024F:  RLF    3D,F
0250:  RLF    3E,F
0251:  RLF    3F,F
0252:  RLF    40,F
0253:  MOVF   3C,W
0254:  SUBWF  40,W
0255:  BTFSS  03.2
0256:  GOTO   261
0257:  MOVF   3B,W
0258:  SUBWF  3F,W
0259:  BTFSS  03.2
025A:  GOTO   261
025B:  MOVF   3A,W
025C:  SUBWF  3E,W
025D:  BTFSS  03.2
025E:  GOTO   261
025F:  MOVF   39,W
0260:  SUBWF  3D,W
0261:  BTFSS  03.0
0262:  GOTO   272
0263:  MOVF   39,W
0264:  SUBWF  3D,F
0265:  MOVF   3A,W
0266:  BTFSS  03.0
0267:  INCFSZ 3A,W
0268:  SUBWF  3E,F
0269:  MOVF   3B,W
026A:  BTFSS  03.0
026B:  INCFSZ 3B,W
026C:  SUBWF  3F,F
026D:  MOVF   3C,W
026E:  BTFSS  03.0
026F:  INCFSZ 3C,W
0270:  SUBWF  40,F
0271:  BSF    03.0
0272:  RLF    77,F
0273:  RLF    78,F
0274:  RLF    79,F
0275:  RLF    7A,F
0276:  DECFSZ 41,F
0277:  GOTO   24A
0278:  MOVF   3D,W
0279:  MOVWF  00
027A:  INCF   04,F
027B:  MOVF   3E,W
027C:  MOVWF  00
027D:  INCF   04,F
027E:  MOVF   3F,W
027F:  MOVWF  00
0280:  INCF   04,F
0281:  MOVF   40,W
0282:  MOVWF  00
*
02A7:  MOVF   0B,W
02A8:  MOVWF  26
02A9:  BCF    0B.7
02AA:  BSF    03.5
02AB:  BSF    03.6
02AC:  BSF    0C.7
02AD:  BSF    0C.0
02AE:  NOP
02AF:  NOP
02B0:  BCF    03.5
02B1:  BCF    03.6
02B2:  BTFSC  26.7
02B3:  BSF    0B.7
02B4:  BTFSC  03.0
02B5:  GOTO   2DE
02B6:  BSF    03.6
02B7:  MOVF   0C,W
02B8:  ANDLW  7F
02B9:  BCF    03.6
02BA:  MOVWF  26
02BB:  BSF    03.6
02BC:  MOVF   0D,W
02BD:  BCF    03.6
02BE:  MOVWF  27
02BF:  BSF    03.6
02C0:  MOVF   0F,W
02C1:  BCF    03.6
02C2:  MOVWF  28
02C3:  MOVF   26,W
02C4:  MOVWF  2E
02C5:  CALL   138
02C6:  MOVF   27,W
02C7:  BSF    03.6
02C8:  MOVWF  0D
02C9:  BCF    03.6
02CA:  MOVF   28,W
02CB:  BSF    03.6
02CC:  MOVWF  0F
02CD:  BCF    03.6
02CE:  MOVF   0B,W
02CF:  MOVWF  29
02D0:  BCF    0B.7
02D1:  BSF    03.5
02D2:  BSF    03.6
02D3:  BSF    0C.7
02D4:  BSF    0C.0
02D5:  NOP
02D6:  NOP
02D7:  BCF    03.5
02D8:  BCF    03.6
02D9:  BTFSC  29.7
02DA:  BSF    0B.7
02DB:  DECFSZ 25,F
02DC:  GOTO   2DE
02DD:  GOTO   2FD
02DE:  BSF    03.6
02DF:  RLF    0C,W
02E0:  RLF    0E,W
02E1:  ANDLW  7F
02E2:  BCF    03.6
02E3:  MOVWF  26
02E4:  BSF    03.6
02E5:  MOVF   0D,W
02E6:  BCF    03.6
02E7:  MOVWF  27
02E8:  BSF    03.6
02E9:  MOVF   0F,W
02EA:  BCF    03.6
02EB:  MOVWF  28
02EC:  MOVF   26,W
02ED:  MOVWF  2E
02EE:  CALL   138
02EF:  MOVF   27,W
02F0:  BSF    03.6
02F1:  MOVWF  0D
02F2:  BCF    03.6
02F3:  MOVF   28,W
02F4:  BSF    03.6
02F5:  MOVWF  0F
02F6:  INCF   0D,F
02F7:  BTFSC  03.2
02F8:  INCF   0F,F
02F9:  BCF    03.0
02FA:  BCF    03.6
02FB:  DECFSZ 25,F
02FC:  GOTO   2A7
02FD:  BCF    0A.3
02FE:  BCF    0A.4
02FF:  GOTO   44F (RETURN)
0300:  CLRF   2D
0301:  MOVF   04,W
0302:  MOVWF  2C
0303:  BCF    2D.0
0304:  BTFSC  03.7
0305:  BSF    2D.0
0306:  SWAPF  26,W
0307:  IORLW  F0
0308:  MOVWF  28
0309:  ADDWF  28,F
030A:  ADDLW  E2
030B:  MOVWF  29
030C:  ADDLW  32
030D:  MOVWF  2B
030E:  MOVF   26,W
030F:  ANDLW  0F
0310:  ADDWF  29,F
0311:  ADDWF  29,F
0312:  ADDWF  2B,F
0313:  ADDLW  E9
0314:  MOVWF  2A
0315:  ADDWF  2A,F
0316:  ADDWF  2A,F
0317:  SWAPF  25,W
0318:  ANDLW  0F
0319:  ADDWF  2A,F
031A:  ADDWF  2B,F
031B:  RLF    2A,F
031C:  RLF    2B,F
031D:  COMF   2B,F
031E:  RLF    2B,F
031F:  MOVF   25,W
0320:  ANDLW  0F
0321:  ADDWF  2B,F
0322:  RLF    28,F
0323:  MOVLW  07
0324:  MOVWF  27
0325:  MOVLW  0A
0326:  ADDWF  2B,F
0327:  DECF   2A,F
0328:  BTFSS  03.0
0329:  GOTO   326
032A:  ADDWF  2A,F
032B:  DECF   29,F
032C:  BTFSS  03.0
032D:  GOTO   32A
032E:  ADDWF  29,F
032F:  DECF   28,F
0330:  BTFSS  03.0
0331:  GOTO   32E
0332:  ADDWF  28,F
0333:  DECF   27,F
0334:  BTFSS  03.0
0335:  GOTO   332
0336:  MOVLW  27
0337:  MOVWF  04
0338:  BCF    03.7
0339:  MOVLW  07
033A:  ANDWF  2C,W
033B:  BCF    2C.6
033C:  ADDWF  04,F
033D:  MOVLW  2B
033E:  SUBWF  04,W
033F:  BTFSC  03.2
0340:  BSF    2C.6
0341:  MOVF   00,W
0342:  MOVWF  77
0343:  BTFSS  03.2
0344:  GOTO   34D
0345:  BTFSC  2C.6
0346:  GOTO   34D
0347:  BTFSC  2C.4
0348:  GOTO   35F
0349:  BTFSC  2C.3
034A:  GOTO   34D
034B:  MOVLW  20
034C:  GOTO   350
034D:  BSF    2C.3
034E:  BCF    2C.4
034F:  MOVLW  30
0350:  ADDWF  77,F
0351:  CLRF   26
0352:  MOVF   04,W
0353:  MOVWF  25
0354:  BCF    26.0
0355:  BTFSC  03.7
0356:  BSF    26.0
0357:  MOVF   77,W
0358:  MOVWF  2E
0359:  CALL   138
035A:  MOVF   25,W
035B:  MOVWF  04
035C:  BCF    03.7
035D:  BTFSC  26.0
035E:  BSF    03.7
035F:  INCF   04,F
0360:  BTFSS  2C.6
0361:  GOTO   33D
0362:  BCF    0A.3
0363:  BCF    0A.4
0364:  GOTO   456 (RETURN)
0365:  CLRF   2D
0366:  MOVF   04,W
0367:  MOVWF  2C
0368:  BCF    2D.0
0369:  BTFSC  03.7
036A:  BSF    2D.0
036B:  BTFSS  26.7
036C:  GOTO   375
036D:  BSF    2C.7
036E:  BTFSS  2C.4
036F:  INCF   2C,F
0370:  COMF   25,F
0371:  COMF   26,F
0372:  INCF   25,F
0373:  BTFSC  03.2
0374:  INCF   26,F
0375:  SWAPF  26,W
0376:  IORLW  F0
0377:  MOVWF  28
0378:  ADDWF  28,F
0379:  ADDLW  E2
037A:  MOVWF  29
037B:  ADDLW  32
037C:  MOVWF  2B
037D:  MOVF   26,W
037E:  ANDLW  0F
037F:  ADDWF  29,F
0380:  ADDWF  29,F
0381:  ADDWF  2B,F
0382:  ADDLW  E9
0383:  MOVWF  2A
0384:  ADDWF  2A,F
0385:  ADDWF  2A,F
0386:  SWAPF  25,W
0387:  ANDLW  0F
0388:  ADDWF  2A,F
0389:  ADDWF  2B,F
038A:  RLF    2A,F
038B:  RLF    2B,F
038C:  COMF   2B,F
038D:  RLF    2B,F
038E:  MOVF   25,W
038F:  ANDLW  0F
0390:  ADDWF  2B,F
0391:  RLF    28,F
0392:  MOVLW  07
0393:  MOVWF  27
0394:  MOVLW  0A
0395:  ADDWF  2B,F
0396:  DECF   2A,F
0397:  BTFSS  03.0
0398:  GOTO   395
0399:  ADDWF  2A,F
039A:  DECF   29,F
039B:  BTFSS  03.0
039C:  GOTO   399
039D:  ADDWF  29,F
039E:  DECF   28,F
039F:  BTFSS  03.0
03A0:  GOTO   39D
03A1:  ADDWF  28,F
03A2:  DECF   27,F
03A3:  BTFSS  03.0
03A4:  GOTO   3A1
03A5:  MOVLW  27
03A6:  MOVWF  04
03A7:  BCF    03.7
03A8:  MOVLW  07
03A9:  ANDWF  2C,W
03AA:  BCF    2C.6
03AB:  DECF   04,F
03AC:  ANDWF  2C,W
03AD:  BTFSS  03.2
03AE:  GOTO   3B6
03AF:  BTFSC  2C.4
03B0:  INCF   04,F
03B1:  BTFSC  2C.4
03B2:  GOTO   3B6
03B3:  MOVLW  20
03B4:  MOVWF  77
03B5:  GOTO   3D3
03B6:  ADDWF  04,F
03B7:  MOVLW  2B
03B8:  SUBWF  04,W
03B9:  BTFSC  03.2
03BA:  BSF    2C.6
03BB:  MOVF   00,W
03BC:  MOVWF  77
03BD:  BTFSS  03.2
03BE:  GOTO   3C7
03BF:  BTFSC  2C.6
03C0:  GOTO   3C7
03C1:  BTFSC  2C.4
03C2:  GOTO   3E1
03C3:  BTFSC  2C.3
03C4:  GOTO   3C7
03C5:  MOVLW  20
03C6:  GOTO   3D2
03C7:  BTFSS  2C.7
03C8:  GOTO   3CF
03C9:  MOVLW  2D
03CA:  MOVWF  77
03CB:  DECF   04,F
03CC:  BCF    2C.6
03CD:  BCF    2C.7
03CE:  GOTO   3D3
03CF:  BSF    2C.3
03D0:  BCF    2C.4
03D1:  MOVLW  30
03D2:  ADDWF  77,F
03D3:  CLRF   26
03D4:  MOVF   04,W
03D5:  MOVWF  25
03D6:  BCF    26.0
03D7:  BTFSC  03.7
03D8:  BSF    26.0
03D9:  MOVF   77,W
03DA:  MOVWF  2E
03DB:  CALL   138
03DC:  MOVF   25,W
03DD:  MOVWF  04
03DE:  BCF    03.7
03DF:  BTFSC  26.0
03E0:  BSF    03.7
03E1:  INCF   04,F
03E2:  BTFSS  2C.6
03E3:  GOTO   3B7
03E4:  BCF    0A.3
03E5:  BCF    0A.4
03E6:  GOTO   466 (RETURN)
....................  
.................... #list 
....................  
.................... #fuses xt, nowdt, put, noprotect    // Configura los fusibles:  
....................                                     // xt: Oscilador en modo cristal (4 MHz) 
....................                                     // nowdt: Desactiva el Watchdog Timer 
....................                                     // put: Habilita el Power-Up Timer 
....................                                     // noprotect: Desactiva la protección de código 
....................  
.................... #device adc=10                      // Configura el ADC con una resolución de 10 bits (0-1023) 
.................... #use delay(clock=4M)                // Establece la frecuencia del reloj a 4 MHz 
*
0013:  MOVLW  2F
0014:  MOVWF  04
0015:  BCF    03.7
0016:  MOVF   00,W
0017:  BTFSC  03.2
0018:  GOTO   027
0019:  MOVLW  01
001A:  MOVWF  78
001B:  CLRF   77
001C:  DECFSZ 77,F
001D:  GOTO   01C
001E:  DECFSZ 78,F
001F:  GOTO   01B
0020:  MOVLW  4A
0021:  MOVWF  77
0022:  DECFSZ 77,F
0023:  GOTO   022
0024:  GOTO   025
0025:  DECFSZ 00,F
0026:  GOTO   019
0027:  RETURN
.................... ////  Example of pin access:                                               //// 
.................... #define LCD_ENABLE_PIN  PIN_D0                                    //// 
.................... #define LCD_RS_PIN      PIN_D1                                    //// 
.................... #define LCD_RW_PIN      PIN_D2                                    //// 
.................... #define LCD_DATA4       PIN_D4                                    //// 
.................... #define LCD_DATA5       PIN_D5                                    //// 
.................... #define LCD_DATA6       PIN_D6                                    //// 
.................... #define LCD_DATA7       PIN_D7  
.................... #include <lcd.c>                    // Incluye las funciones para el control del LCD 
.................... /////////////////////////////////////////////////////////////////////////////// 
.................... ////                             LCD.C                                     //// 
.................... ////                 Driver for common LCD modules                         //// 
.................... ////                                                                       //// 
.................... ////  lcd_init()   Must be called before any other function.               //// 
.................... ////                                                                       //// 
.................... ////  lcd_putc(c)  Will display c on the next position of the LCD.         //// 
.................... ////                 \a  Set cursor position to upper left                 //// 
.................... ////                 \f  Clear display, set cursor to upper left           //// 
.................... ////                 \n  Go to start of second line                        //// 
.................... ////                 \b  Move back one position                            //// 
.................... ////              If LCD_EXTENDED_NEWLINE is defined, the \n character     //// 
.................... ////              will erase all remanining characters on the current      //// 
.................... ////              line, and move the cursor to the beginning of the next   //// 
.................... ////              line.                                                    //// 
.................... ////              If LCD_EXTENDED_NEWLINE is defined, the \r character     //// 
.................... ////              will move the cursor to the start of the current         //// 
.................... ////              line.                                                    //// 
.................... ////                                                                       //// 
.................... ////  lcd_gotoxy(x,y) Set write position on LCD (upper left is 1,1)        //// 
.................... ////                                                                       //// 
.................... ////  lcd_getc(x,y)   Returns character at position x,y on LCD             //// 
.................... ////                                                                       //// 
.................... ////  lcd_cursor_on(int1 on)   Turn the cursor on (on=TRUE) or off         //// 
.................... ////              (on=FALSE).                                              //// 
.................... ////                                                                       //// 
.................... ////  lcd_set_cgram_char(w, *p)   Write a custom character to the CGRAM.   //// 
.................... ////                                                                       //// 
.................... ////                                                                       //// 
.................... ////  CONFIGURATION                                                        //// 
.................... ////  The LCD can be configured in one of two ways: a.) port access or     //// 
.................... ////  b.) pin access.  Port access requires the entire 7 bit interface     //// 
.................... ////  connected to one GPIO port, and the data bits (D4:D7 of the LCD)     //// 
.................... ////  connected to sequential pins on the GPIO.  Pin access                //// 
.................... ////  has no requirements, all 7 bits of the control interface can         //// 
.................... ////  can be connected to any GPIO using several ports.                    //// 
.................... ////                                                                       //// 
.................... ////  To use port access, #define LCD_DATA_PORT to the SFR location of     //// 
.................... ////  of the GPIO port that holds the interface, -AND- edit LCD_PIN_MAP    //// 
.................... ////  of this file to configure the pin order.  If you are using a         //// 
.................... ////  baseline PIC (PCB), then LCD_OUTPUT_MAP and LCD_INPUT_MAP also must  //// 
.................... ////  be defined.                                                          //// 
.................... ////                                                                       //// 
.................... ////  Example of port access:                                              //// 
.................... ////     #define LCD_DATA_PORT getenv("SFR:PORTD")                         //// 
.................... ////                                                                       //// 
.................... ////  To use pin access, the following pins must be defined:               //// 
.................... ////     LCD_ENABLE_PIN                                                    //// 
.................... ////     LCD_RS_PIN                                                        //// 
.................... ////     LCD_RW_PIN                                                        //// 
.................... ////     LCD_DATA4                                                         //// 
.................... ////     LCD_DATA5                                                         //// 
.................... ////     LCD_DATA6                                                         //// 
.................... ////     LCD_DATA7                                                         //// 
.................... ////                                                                       //// 
.................... ////  Example of pin access:                                               //// 
.................... ////     #define LCD_ENABLE_PIN  PIN_E0                                    //// 
.................... ////     #define LCD_RS_PIN      PIN_E1                                    //// 
.................... ////     #define LCD_RW_PIN      PIN_E2                                    //// 
.................... ////     #define LCD_DATA4       PIN_D4                                    //// 
.................... ////     #define LCD_DATA5       PIN_D5                                    //// 
.................... ////     #define LCD_DATA6       PIN_D6                                    //// 
.................... ////     #define LCD_DATA7       PIN_D7                                    //// 
.................... ////                                                                       //// 
.................... /////////////////////////////////////////////////////////////////////////////// 
.................... ////        (C) Copyright 1996,2010 Custom Computer Services           //// 
.................... //// This source code may only be used by licensed users of the CCS C  //// 
.................... //// compiler.  This source code may only be distributed to other      //// 
.................... //// licensed users of the CCS C compiler.  No other use, reproduction //// 
.................... //// or distribution is permitted without written permission.          //// 
.................... //// Derivative programs created using this software in object code    //// 
.................... //// form are not restricted in any way.                               //// 
.................... /////////////////////////////////////////////////////////////////////////// 
....................  
.................... #ifndef __LCD_C__ 
.................... #define __LCD_C__ 
....................  
.................... // define the pinout. 
.................... // only required if port access is being used. 
.................... typedef struct   
.................... {                            // This structure is overlayed 
....................    int1 enable;           // on to an I/O port to gain 
....................    int1 rs;               // access to the LCD pins. 
....................    int1 rw;               // The bits are allocated from 
....................    int1 unused;           // low order up.  ENABLE will 
....................    unsigned int     data : 4;         // be LSB pin of that port. 
....................   #if defined(__PCD__)       // The port used will be LCD_DATA_PORT. 
....................    unsigned int    reserved: 8; 
....................   #endif 
.................... } LCD_PIN_MAP; 
....................  
.................... // this is to improve compatability with previous LCD drivers that accepted 
.................... // a define labeled 'use_portb_lcd' that configured the LCD onto port B. 
.................... #if ((defined(use_portb_lcd)) && (use_portb_lcd==TRUE)) 
....................  #define LCD_DATA_PORT getenv("SFR:PORTB") 
.................... #endif 
....................  
.................... #if defined(__PCB__) 
....................    // these definitions only need to be modified for baseline PICs. 
....................    // all other PICs use LCD_PIN_MAP or individual LCD_xxx pin definitions. 
.................... /*                                    EN, RS,   RW,   UNUSED,  DATA  */ 
....................  const LCD_PIN_MAP LCD_OUTPUT_MAP =  {0,  0,    0,    0,       0}; 
....................  const LCD_PIN_MAP LCD_INPUT_MAP =   {0,  0,    0,    0,       0xF}; 
.................... #endif 
....................  
.................... ////////////////////// END CONFIGURATION /////////////////////////////////// 
....................  
.................... #ifndef LCD_ENABLE_PIN 
....................    #define lcd_output_enable(x) lcdlat.enable=x 
....................    #define lcd_enable_tris()   lcdtris.enable=0 
.................... #else 
....................    #define lcd_output_enable(x) output_bit(LCD_ENABLE_PIN, x) 
....................    #define lcd_enable_tris()  output_drive(LCD_ENABLE_PIN) 
.................... #endif 
....................  
.................... #ifndef LCD_RS_PIN 
....................    #define lcd_output_rs(x) lcdlat.rs=x 
....................    #define lcd_rs_tris()   lcdtris.rs=0 
.................... #else 
....................    #define lcd_output_rs(x) output_bit(LCD_RS_PIN, x) 
....................    #define lcd_rs_tris()  output_drive(LCD_RS_PIN) 
.................... #endif 
....................  
.................... #ifndef LCD_RW_PIN 
....................    #define lcd_output_rw(x) lcdlat.rw=x 
....................    #define lcd_rw_tris()   lcdtris.rw=0 
.................... #else 
....................    #define lcd_output_rw(x) output_bit(LCD_RW_PIN, x) 
....................    #define lcd_rw_tris()  output_drive(LCD_RW_PIN) 
.................... #endif 
....................  
.................... // original version of this library incorrectly labeled LCD_DATA0 as LCD_DATA4, 
.................... // LCD_DATA1 as LCD_DATA5, and so on.  this block of code makes the driver 
.................... // compatible with any code written for the original library 
.................... #if (defined(LCD_DATA0) && defined(LCD_DATA1) && defined(LCD_DATA2) && defined(LCD_DATA3) && !defined(LCD_DATA4) && !defined(LCD_DATA5) && !defined(LCD_DATA6) && !defined(LCD_DATA7)) 
....................    #define  LCD_DATA4    LCD_DATA0 
....................    #define  LCD_DATA5    LCD_DATA1 
....................    #define  LCD_DATA6    LCD_DATA2 
....................    #define  LCD_DATA7    LCD_DATA3 
.................... #endif 
....................  
.................... #ifndef LCD_DATA4 
.................... #ifndef LCD_DATA_PORT 
....................    #if defined(__PCB__) 
....................       #define LCD_DATA_PORT      0x06     //portb 
....................       #define set_tris_lcd(x)   set_tris_b(x) 
....................    #else 
....................      #if defined(PIN_D0) 
....................       #define LCD_DATA_PORT      getenv("SFR:PORTD")     //portd 
....................      #else 
....................       #define LCD_DATA_PORT      getenv("SFR:PORTB")     //portb 
....................      #endif 
....................    #endif    
.................... #endif 
....................  
.................... #if defined(__PCB__) 
....................    LCD_PIN_MAP lcd, lcdlat; 
....................    #byte lcd = LCD_DATA_PORT 
....................    #byte lcdlat = LCD_DATA_PORT 
.................... #elif defined(__PCM__) 
....................    LCD_PIN_MAP lcd, lcdlat, lcdtris; 
....................    #byte lcd = LCD_DATA_PORT 
....................    #byte lcdlat = LCD_DATA_PORT 
....................    #byte lcdtris = LCD_DATA_PORT+0x80 
.................... #elif defined(__PCH__) 
....................    LCD_PIN_MAP lcd, lcdlat, lcdtris; 
....................    #byte lcd = LCD_DATA_PORT 
....................    #byte lcdlat = LCD_DATA_PORT+9 
....................    #byte lcdtris = LCD_DATA_PORT+0x12 
.................... #elif defined(__PCD__) 
....................    LCD_PIN_MAP lcd, lcdlat, lcdtris; 
....................    #word lcd = LCD_DATA_PORT 
....................    #word lcdlat = LCD_DATA_PORT+2 
....................    #word lcdtris = LCD_DATA_PORT-0x02 
.................... #endif 
.................... #endif   //LCD_DATA4 not defined 
....................  
.................... #ifndef LCD_TYPE 
....................    #define LCD_TYPE 2           // 0=5x7, 1=5x10, 2=2 lines 
.................... #endif 
....................  
.................... #ifndef LCD_LINE_TWO 
....................    #define LCD_LINE_TWO 0x40    // LCD RAM address for the second line 
.................... #endif 
....................  
.................... #ifndef LCD_LINE_LENGTH 
....................    #define LCD_LINE_LENGTH 20 
.................... #endif 
....................  
.................... unsigned int8 lcd_read_nibble(void); 
....................  
.................... unsigned int8 lcd_read_byte(void) 
.................... { 
....................    unsigned int8 low,high; 
....................  
....................  #if defined(__PCB__) 
....................    set_tris_lcd(LCD_INPUT_MAP); 
....................  #else 
....................   #if (defined(LCD_DATA4) && defined(LCD_DATA5) && defined(LCD_DATA6) && defined(LCD_DATA7)) 
....................    output_float(LCD_DATA4); 
*
008C:  BSF    08.4
....................    output_float(LCD_DATA5); 
008D:  BSF    08.5
....................    output_float(LCD_DATA6); 
008E:  BSF    08.6
....................    output_float(LCD_DATA7); 
008F:  BSF    08.7
....................   #else 
....................    lcdtris.data = 0xF; 
....................   #endif 
....................  #endif 
....................          
....................    lcd_output_rw(1); 
0090:  BCF    03.5
0091:  BSF    08.2
0092:  BSF    03.5
0093:  BCF    08.2
....................    delay_cycles(1); 
0094:  NOP
....................    lcd_output_enable(1); 
0095:  BCF    03.5
0096:  BSF    08.0
0097:  BSF    03.5
0098:  BCF    08.0
....................    delay_cycles(1); 
0099:  NOP
....................    high = lcd_read_nibble(); 
009A:  BCF    03.5
009B:  CALL   053
009C:  MOVF   78,W
009D:  MOVWF  36
....................        
....................    lcd_output_enable(0); 
009E:  BCF    08.0
009F:  BSF    03.5
00A0:  BCF    08.0
....................    delay_cycles(1); 
00A1:  NOP
....................    lcd_output_enable(1); 
00A2:  BCF    03.5
00A3:  BSF    08.0
00A4:  BSF    03.5
00A5:  BCF    08.0
....................    delay_us(1); 
00A6:  NOP
....................    low = lcd_read_nibble(); 
00A7:  BCF    03.5
00A8:  CALL   053
00A9:  MOVF   78,W
00AA:  MOVWF  35
....................        
....................    lcd_output_enable(0); 
00AB:  BCF    08.0
00AC:  BSF    03.5
00AD:  BCF    08.0
....................  
....................  #if defined(__PCB__) 
....................    set_tris_lcd(LCD_OUTPUT_MAP); 
....................  #else 
....................   #if (defined(LCD_DATA4) && defined(LCD_DATA5) && defined(LCD_DATA6) && defined(LCD_DATA7)) 
....................    output_drive(LCD_DATA4); 
00AE:  BCF    08.4
....................    output_drive(LCD_DATA5); 
00AF:  BCF    08.5
....................    output_drive(LCD_DATA6); 
00B0:  BCF    08.6
....................    output_drive(LCD_DATA7); 
00B1:  BCF    08.7
....................   #else 
....................    lcdtris.data = 0x0; 
....................   #endif 
....................  #endif 
....................  
....................    return( (high<<4) | low); 
00B2:  BCF    03.5
00B3:  SWAPF  36,W
00B4:  MOVWF  77
00B5:  MOVLW  F0
00B6:  ANDWF  77,F
00B7:  MOVF   77,W
00B8:  IORWF  35,W
00B9:  MOVWF  78
.................... } 
....................  
.................... unsigned int8 lcd_read_nibble(void) 
.................... { 
....................   #if (defined(LCD_DATA4) && defined(LCD_DATA5) && defined(LCD_DATA6) && defined(LCD_DATA7)) 
*
0053:  CLRF   37
....................    unsigned int8 n = 0x00; 
....................  
....................    /* Read the data port */ 
....................    n |= input(LCD_DATA4); 
0054:  BSF    03.5
0055:  BSF    08.4
0056:  MOVLW  00
0057:  BCF    03.5
0058:  BTFSC  08.4
0059:  MOVLW  01
005A:  IORWF  37,F
....................    n |= input(LCD_DATA5) << 1; 
005B:  BSF    03.5
005C:  BSF    08.5
005D:  MOVLW  00
005E:  BCF    03.5
005F:  BTFSC  08.5
0060:  MOVLW  01
0061:  MOVWF  77
0062:  BCF    03.0
0063:  RLF    77,F
0064:  MOVF   77,W
0065:  IORWF  37,F
....................    n |= input(LCD_DATA6) << 2; 
0066:  BSF    03.5
0067:  BSF    08.6
0068:  MOVLW  00
0069:  BCF    03.5
006A:  BTFSC  08.6
006B:  MOVLW  01
006C:  MOVWF  77
006D:  RLF    77,F
006E:  RLF    77,F
006F:  MOVLW  FC
0070:  ANDWF  77,F
0071:  MOVF   77,W
0072:  IORWF  37,F
....................    n |= input(LCD_DATA7) << 3; 
0073:  BSF    03.5
0074:  BSF    08.7
0075:  MOVLW  00
0076:  BCF    03.5
0077:  BTFSC  08.7
0078:  MOVLW  01
0079:  MOVWF  77
007A:  RLF    77,F
007B:  RLF    77,F
007C:  RLF    77,F
007D:  MOVLW  F8
007E:  ANDWF  77,F
007F:  MOVF   77,W
0080:  IORWF  37,F
....................     
....................    return(n); 
0081:  MOVF   37,W
0082:  MOVWF  78
....................   #else 
0083:  RETURN
....................    return(lcd.data); 
....................   #endif 
.................... } 
....................  
.................... void lcd_send_nibble(unsigned int8 n) 
.................... { 
....................   #if (defined(LCD_DATA4) && defined(LCD_DATA5) && defined(LCD_DATA6) && defined(LCD_DATA7)) 
....................    /* Write to the data port */ 
....................    output_bit(LCD_DATA4, bit_test(n, 0)); 
*
0028:  BTFSC  36.0
0029:  GOTO   02C
002A:  BCF    08.4
002B:  GOTO   02D
002C:  BSF    08.4
002D:  BSF    03.5
002E:  BCF    08.4
....................    output_bit(LCD_DATA5, bit_test(n, 1)); 
002F:  BCF    03.5
0030:  BTFSC  36.1
0031:  GOTO   034
0032:  BCF    08.5
0033:  GOTO   035
0034:  BSF    08.5
0035:  BSF    03.5
0036:  BCF    08.5
....................    output_bit(LCD_DATA6, bit_test(n, 2)); 
0037:  BCF    03.5
0038:  BTFSC  36.2
0039:  GOTO   03C
003A:  BCF    08.6
003B:  GOTO   03D
003C:  BSF    08.6
003D:  BSF    03.5
003E:  BCF    08.6
....................    output_bit(LCD_DATA7, bit_test(n, 3)); 
003F:  BCF    03.5
0040:  BTFSC  36.3
0041:  GOTO   044
0042:  BCF    08.7
0043:  GOTO   045
0044:  BSF    08.7
0045:  BSF    03.5
0046:  BCF    08.7
....................   #else       
....................    lcdlat.data = n; 
....................   #endif 
....................        
....................    delay_cycles(1); 
0047:  NOP
....................    lcd_output_enable(1); 
0048:  BCF    03.5
0049:  BSF    08.0
004A:  BSF    03.5
004B:  BCF    08.0
....................    delay_us(2); 
004C:  GOTO   04D
....................    lcd_output_enable(0); 
004D:  BCF    03.5
004E:  BCF    08.0
004F:  BSF    03.5
0050:  BCF    08.0
0051:  BCF    03.5
0052:  RETURN
.................... } 
....................  
.................... void lcd_send_byte(unsigned int8 address, unsigned int8 n) 
.................... { 
....................   #if defined(__PCB__) 
....................    set_tris_lcd(LCD_OUTPUT_MAP); 
....................   #else 
....................    lcd_enable_tris(); 
*
0084:  BSF    03.5
0085:  BCF    08.0
....................    lcd_rs_tris(); 
0086:  BCF    08.1
....................    lcd_rw_tris(); 
0087:  BCF    08.2
....................   #endif 
....................  
....................    lcd_output_rs(0); 
0088:  BCF    03.5
0089:  BCF    08.1
008A:  BSF    03.5
008B:  BCF    08.1
....................    while ( bit_test(lcd_read_byte(),7) ) ; 
*
00BA:  MOVF   78,W
00BB:  MOVWF  35
00BC:  BTFSS  35.7
00BD:  GOTO   0C0
00BE:  BSF    03.5
00BF:  GOTO   08C
....................    lcd_output_rs(address); 
00C0:  MOVF   33,F
00C1:  BTFSS  03.2
00C2:  GOTO   0C5
00C3:  BCF    08.1
00C4:  GOTO   0C6
00C5:  BSF    08.1
00C6:  BSF    03.5
00C7:  BCF    08.1
....................    delay_cycles(1); 
00C8:  NOP
....................    lcd_output_rw(0); 
00C9:  BCF    03.5
00CA:  BCF    08.2
00CB:  BSF    03.5
00CC:  BCF    08.2
....................    delay_cycles(1); 
00CD:  NOP
....................    lcd_output_enable(0); 
00CE:  BCF    03.5
00CF:  BCF    08.0
00D0:  BSF    03.5
00D1:  BCF    08.0
....................    lcd_send_nibble(n >> 4); 
00D2:  BCF    03.5
00D3:  SWAPF  34,W
00D4:  MOVWF  35
00D5:  MOVLW  0F
00D6:  ANDWF  35,F
00D7:  MOVF   35,W
00D8:  MOVWF  36
00D9:  CALL   028
....................    lcd_send_nibble(n & 0xf); 
00DA:  MOVF   34,W
00DB:  ANDLW  0F
00DC:  MOVWF  35
00DD:  MOVWF  36
00DE:  CALL   028
00DF:  RETURN
.................... } 
....................  
.................... #if defined(LCD_EXTENDED_NEWLINE) 
.................... unsigned int8 g_LcdX, g_LcdY; 
.................... #endif 
....................  
.................... void lcd_init(void)  
.................... { 
....................    unsigned int8 i; 
....................    unsigned int8 LCD_INIT_STRING[4] = {0x20 | (LCD_TYPE << 2), 0xc, 1, 6}; 
00E0:  MOVLW  28
00E1:  MOVWF  26
00E2:  MOVLW  0C
00E3:  MOVWF  27
00E4:  MOVLW  01
00E5:  MOVWF  28
00E6:  MOVLW  06
00E7:  MOVWF  29
....................                              // These bytes need to be sent to the LCD 
....................                              // to start it up. 
....................     
....................  
....................    lcd_output_enable(0); 
00E8:  BCF    08.0
00E9:  BSF    03.5
00EA:  BCF    08.0
....................    lcd_output_rs(0); 
00EB:  BCF    03.5
00EC:  BCF    08.1
00ED:  BSF    03.5
00EE:  BCF    08.1
....................    lcd_output_rw(0); 
00EF:  BCF    03.5
00F0:  BCF    08.2
00F1:  BSF    03.5
00F2:  BCF    08.2
....................  
....................  #if defined(__PCB__) 
....................    set_tris_lcd(LCD_OUTPUT_MAP); 
....................  #else 
....................   #if (defined(LCD_DATA4) && defined(LCD_DATA5) && defined(LCD_DATA6) && defined(LCD_DATA7)) 
....................    output_drive(LCD_DATA4); 
00F3:  BCF    08.4
....................    output_drive(LCD_DATA5); 
00F4:  BCF    08.5
....................    output_drive(LCD_DATA6); 
00F5:  BCF    08.6
....................    output_drive(LCD_DATA7); 
00F6:  BCF    08.7
....................   #else 
....................    lcdtris.data = 0x0; 
....................   #endif 
....................    lcd_enable_tris(); 
00F7:  BCF    08.0
....................    lcd_rs_tris(); 
00F8:  BCF    08.1
....................    lcd_rw_tris(); 
00F9:  BCF    08.2
....................  #endif 
....................      
....................    delay_ms(15); 
00FA:  MOVLW  0F
00FB:  BCF    03.5
00FC:  MOVWF  2F
00FD:  CALL   013
....................    for(i=1;i<=3;++i) 
00FE:  MOVLW  01
00FF:  MOVWF  25
0100:  MOVF   25,W
0101:  SUBLW  03
0102:  BTFSS  03.0
0103:  GOTO   10C
....................    { 
....................        lcd_send_nibble(3); 
0104:  MOVLW  03
0105:  MOVWF  36
0106:  CALL   028
....................        delay_ms(5); 
0107:  MOVLW  05
0108:  MOVWF  2F
0109:  CALL   013
010A:  INCF   25,F
010B:  GOTO   100
....................    } 
....................     
....................    lcd_send_nibble(2); 
010C:  MOVLW  02
010D:  MOVWF  36
010E:  CALL   028
....................    delay_ms(5); 
010F:  MOVLW  05
0110:  MOVWF  2F
0111:  CALL   013
....................    for(i=0;i<=3;++i) 
0112:  CLRF   25
0113:  MOVF   25,W
0114:  SUBLW  03
0115:  BTFSS  03.0
0116:  GOTO   123
....................       lcd_send_byte(0,LCD_INIT_STRING[i]); 
0117:  MOVLW  26
0118:  ADDWF  25,W
0119:  MOVWF  04
011A:  BCF    03.7
011B:  MOVF   00,W
011C:  MOVWF  2A
011D:  CLRF   33
011E:  MOVF   2A,W
011F:  MOVWF  34
0120:  CALL   084
....................  
....................   #if defined(LCD_EXTENDED_NEWLINE) 
0121:  INCF   25,F
0122:  GOTO   113
0123:  BCF    0A.3
0124:  BCF    0A.4
0125:  GOTO   3F8 (RETURN)
....................    g_LcdX = 0; 
....................    g_LcdY = 0; 
....................   #endif 
.................... } 
....................  
.................... void lcd_gotoxy(unsigned int8 x, unsigned int8 y) 
.................... { 
....................    unsigned int8 address; 
....................     
....................    if(y!=1) 
0126:  DECFSZ 30,W
0127:  GOTO   129
0128:  GOTO   12C
....................       address=LCD_LINE_TWO; 
0129:  MOVLW  40
012A:  MOVWF  31
012B:  GOTO   12D
....................    else 
....................       address=0; 
012C:  CLRF   31
....................       
....................    address+=x-1; 
012D:  MOVLW  01
012E:  SUBWF  2F,W
012F:  ADDWF  31,F
....................    lcd_send_byte(0,0x80|address); 
0130:  MOVF   31,W
0131:  IORLW  80
0132:  MOVWF  32
0133:  CLRF   33
0134:  MOVF   32,W
0135:  MOVWF  34
0136:  CALL   084
....................  
....................   #if defined(LCD_EXTENDED_NEWLINE) 
0137:  RETURN
....................    g_LcdX = x - 1; 
....................    g_LcdY = y - 1; 
....................   #endif 
.................... } 
....................  
.................... void lcd_putc(char c) 
.................... { 
....................    switch (c) 
0138:  MOVF   2E,W
0139:  XORLW  07
013A:  BTFSC  03.2
013B:  GOTO   146
013C:  XORLW  0B
013D:  BTFSC  03.2
013E:  GOTO   14B
013F:  XORLW  06
0140:  BTFSC  03.2
0141:  GOTO   153
0142:  XORLW  02
0143:  BTFSC  03.2
0144:  GOTO   159
0145:  GOTO   15E
....................    { 
....................       case '\a'   :  lcd_gotoxy(1,1);     break; 
0146:  MOVLW  01
0147:  MOVWF  2F
0148:  MOVWF  30
0149:  CALL   126
014A:  GOTO   163
....................  
....................       case '\f'   :  lcd_send_byte(0,1); 
014B:  CLRF   33
014C:  MOVLW  01
014D:  MOVWF  34
014E:  CALL   084
....................                      delay_ms(2); 
014F:  MOVLW  02
0150:  MOVWF  2F
0151:  CALL   013
....................                     #if defined(LCD_EXTENDED_NEWLINE) 
....................                      g_LcdX = 0; 
....................                      g_LcdY = 0; 
....................                     #endif 
....................                      break; 
0152:  GOTO   163
....................  
....................      #if defined(LCD_EXTENDED_NEWLINE) 
....................       case '\r'   :  lcd_gotoxy(1, g_LcdY+1);   break; 
....................       case '\n'   : 
....................          while (g_LcdX++ < LCD_LINE_LENGTH) 
....................          { 
....................             lcd_send_byte(1, ' '); 
....................          } 
....................          lcd_gotoxy(1, g_LcdY+2); 
....................          break; 
....................      #else 
....................       case '\n'   : lcd_gotoxy(1,2);        break; 
0153:  MOVLW  01
0154:  MOVWF  2F
0155:  MOVLW  02
0156:  MOVWF  30
0157:  CALL   126
0158:  GOTO   163
....................      #endif 
....................       
....................       case '\b'   : lcd_send_byte(0,0x10);  break; 
0159:  CLRF   33
015A:  MOVLW  10
015B:  MOVWF  34
015C:  CALL   084
015D:  GOTO   163
....................       
....................      #if defined(LCD_EXTENDED_NEWLINE) 
....................       default     :  
....................          if (g_LcdX < LCD_LINE_LENGTH) 
....................          { 
....................             lcd_send_byte(1, c); 
....................             g_LcdX++; 
....................          } 
....................          break; 
....................      #else 
....................       default     : lcd_send_byte(1,c);     break; 
015E:  MOVLW  01
015F:  MOVWF  33
0160:  MOVF   2E,W
0161:  MOVWF  34
0162:  CALL   084
....................      #endif 
....................    } 
0163:  RETURN
.................... } 
....................   
.................... char lcd_getc(unsigned int8 x, unsigned int8 y) 
.................... { 
....................    char value; 
....................  
....................    lcd_gotoxy(x,y); 
....................    while ( bit_test(lcd_read_byte(),7) ); // wait until busy flag is low 
....................    lcd_output_rs(1); 
....................    value = lcd_read_byte(); 
....................    lcd_output_rs(0); 
....................     
....................    return(value); 
.................... } 
....................  
.................... // write a custom character to the ram 
.................... // which is 0-7 and specifies which character array we are modifying. 
.................... // ptr points to an array of 8 bytes, where each byte is the next row of 
.................... //    pixels.  only bits 0-4 are used.  the last row is the cursor row, and 
.................... //    usually you will want to leave this byte 0x00. 
.................... void lcd_set_cgram_char(unsigned int8 which, unsigned int8 *ptr) 
.................... { 
....................    unsigned int i; 
....................  
....................    which <<= 3; 
....................    which &= 0x38; 
....................  
....................    lcd_send_byte(0, 0x40 | which);  //set cgram address 
....................  
....................    for(i=0; i<8; i++) 
....................    { 
....................       lcd_send_byte(1, *ptr++); 
....................    } 
....................    
....................    #if defined(LCD_EXTENDED_NEWLINE) 
....................     lcd_gotoxy(g_LcdX+1, g_LcdY+1);  //set ddram address 
....................    #endif 
.................... } 
....................  
.................... void lcd_cursor_on(int1 on) 
.................... { 
....................    if (on) 
....................    { 
....................       lcd_send_byte(0,0x0F);           //turn LCD cursor ON 
....................    } 
....................    else 
....................    { 
....................       lcd_send_byte(0,0x0C);           //turn LCD cursor OFF 
....................    } 
.................... } 
....................  
.................... #endif 
....................  
.................... #include <stdint.h> 
.................... /////////////////////////////////////////////////////////////////////////// 
.................... ////                                                                   //// 
.................... ////                           stdint.h                                //// 
.................... ////                                                                   //// 
.................... //// Standard integer definitions.                                     //// 
.................... ////                                                                   //// 
.................... /////////////////////////////////////////////////////////////////////////// 
.................... ////        (C) Copyright 1996,2008 Custom Computer Services           //// 
.................... //// This source code may only be used by licensed users of the CCS C  //// 
.................... //// compiler.  This source code may only be distributed to other      //// 
.................... //// licensed users of the CCS C compiler.  No other use, reproduction //// 
.................... //// or distribution is permitted without written permission.          //// 
.................... //// Derivative programs created using this software in object code    //// 
.................... //// form are not restricted in any way.                               //// 
.................... /////////////////////////////////////////////////////////////////////////// 
....................  
.................... #ifndef _STDINT 
....................  
.................... #define _STDINT 
....................  
.................... //////////// exact width 
....................  
.................... typedef signed int8 int8_t; 
.................... typedef unsigned int8 uint8_t; 
.................... typedef signed int16 int16_t; 
.................... typedef unsigned int16 uint16_t; 
.................... typedef signed int32 int32_t; 
.................... typedef unsigned int32 uint32_t; 
....................  
.................... #if defined(__PCD__) 
.................... //typedef signed int24 int24_t; 
.................... //typedef unsigned int24 uint24_t; 
.................... typedef signed int64 int64_t; 
.................... typedef unsigned int64 uint64_t; 
.................... #endif 
....................  
.................... #define INT8_MAX  (128) 
.................... #define INT8_MIN  (-127) 
.................... #define UINT8_MAX (255) 
....................  
.................... #define INT16_MAX  (32767) 
.................... #define INT16_MIN  (-32768) 
.................... #define UINT16_MAX (65535) 
....................  
.................... #define INT32_MAX  (2147483647) 
.................... #define INT32_MIN  (-2147483648) 
.................... #define UINT32_MAX (4294967295) 
....................  
.................... #if defined(__PCD__) 
.................... //#define INT24_MAX  (8388607) 
.................... //#define INT24_MIN  (-8388608) 
.................... //#define UINT24_MAX (16777215) 
....................  
.................... #define INT64_MAX  (9223372036854775807) 
.................... #define INT64_MIN  (-9223372036854775808) 
.................... #define UINT64_MAX (18446744073709551615) 
.................... #endif 
....................  
.................... ///////// minimum width 
....................  
.................... typedef signed int8 int_least8_t; 
.................... typedef unsigned int8 uint_least8_t; 
.................... typedef signed int16 int_least16_t; 
.................... typedef unsigned int16 uint_least16_t; 
.................... typedef signed int32 int_least32_t; 
.................... typedef unsigned int32 uint_least32_t; 
....................  
.................... #if defined(__PCD__) 
.................... //typedef signed int24 int_least24_t; 
.................... //typedef unsigned int24 uint_least24_t; 
.................... typedef signed int64 int_least64_t; 
.................... typedef unsigned int64 uint_least64_t; 
.................... #endif 
....................  
.................... #define INT_LEAST8_MAX  (128) 
.................... #define INT_LEAST8_MIN  (-127) 
.................... #define UINT_LEAST8_MAX (255) 
....................  
.................... #define INT_LEAST16_MAX  (32767) 
.................... #define INT_LEAST16_MIN  (-32768) 
.................... #define UINT_LEAST16_MAX (65535) 
....................  
.................... #define INT_LEAST32_MAX  (2147483647) 
.................... #define INT_LEAST32_MIN  (-2147483648) 
.................... #define UINT_LEAST32_MAX (4294967295) 
....................  
.................... #if defined(__PCD__) 
.................... //#define INT_LEAST24_MAX  (8388607) 
.................... //#define INT_LEAST24_MIN  (-8388608) 
.................... //#define UINT_LEAST24_MAX (16777215) 
....................  
.................... #define INT_LEAST64_MAX  (9223372036854775807) 
.................... #define INT_LEAST64_MIN  (-9223372036854775808) 
.................... #define UINT_LEAST64_MAX (18446744073709551615) 
.................... #endif 
....................  
.................... ///////// fastest width 
....................  
.................... #if defined(__PCD__) 
.................... typedef signed int16 int_fast8_t; 
.................... typedef unsigned int16 uint_fast8_t; 
.................... #define INT_FAST8_MAX  (32767) 
.................... #define INT_FAST8_MIN  (-32768) 
.................... #define UINT_FAST8_MAX (65535) 
.................... typedef signed int16 int_fast16_t; 
.................... typedef unsigned int16 uint_fast16_t; 
.................... //typedef signed int24 int_fast24_t; 
.................... //typedef unsigned int24 uint_fast24_t; 
.................... typedef signed int64 int_fast64_t; 
.................... typedef unsigned int64 uint_fast64_t; 
.................... #else 
.................... typedef signed int8 int_fast8_t; 
.................... typedef unsigned int8 uint_fast8_t; 
.................... #define INT_FAST8_MAX  (128) 
.................... #define INT_FAST8_MIN  (-127) 
.................... #define UINT_FAST8_MAX (255) 
.................... typedef signed int16 int_fast16_t; 
.................... typedef unsigned int16 uint_fast16_t; 
.................... #endif 
....................  
.................... typedef signed int32 int_fast32_t; 
.................... typedef unsigned int32 uint_fast32_t; 
....................  
.................... #define INT_FAST16_MAX  (32767) 
.................... #define INT_FAST16_MIN  (-32768) 
.................... #define UINT_FAST16_MAX (65535) 
....................  
.................... #define INT_FAST32_MAX  (2147483647) 
.................... #define INT_FAST32_MIN  (-2147483648) 
.................... #define UINT_FAST32_MAX (4294967295) 
....................  
.................... #if defined(__PCD__) 
.................... //#define INT_FAST24_MAX  (8388607) 
.................... //#define INT_FAST24_MIN  (-8388608) 
.................... //#define UINT_FAST24_MAX (16777215) 
....................  
.................... #define INT_FAST64_MAX  (9223372036854775807) 
.................... #define INT_FAST64_MIN  (-9223372036854775808) 
.................... #define UINT_FAST64_MAX (18446744073709551615) 
.................... #endif 
....................  
.................... //////////// big enough to hold pointers (OPTIONAL) 
....................  
.................... /// TODO 
....................  
.................... /// intptr_t uintptr_t 
....................  
.................... /// INTPTRN_MIN INTPTRN_MAX UINTPTRN_MAX 
....................  
....................  
.................... /////////// greatest width (OPTIONAL) 
....................  
.................... /// TODO 
....................  
.................... /// intmax_t uintmax_t 
....................  
.................... /// INTMAXN_MIN INTMAXN_MAX UINTMAXN_MAX 
....................  
.................... /// INTMAX_C(value) UINTMAX_C(value) 
....................  
....................  
.................... #endif 
....................  
....................  
.................... //Funcion map 
.................... uint16_t map(uint16_t x, uint16_t in_min, uint16_t in_max, uint16_t out_min, uint16_t out_max) { 
....................     return (((out_max - out_min) * (uint32_t)(x - in_min)) / (in_max - in_min)) + out_min; 
*
01BA:  MOVF   2B,W
01BB:  SUBWF  2D,W
01BC:  MOVWF  2F
01BD:  MOVF   2E,W
01BE:  MOVWF  30
01BF:  MOVF   2C,W
01C0:  BTFSS  03.0
01C1:  INCFSZ 2C,W
01C2:  SUBWF  30,F
01C3:  MOVF   27,W
01C4:  SUBWF  25,W
01C5:  MOVWF  77
01C6:  MOVF   26,W
01C7:  MOVWF  7A
01C8:  MOVF   28,W
01C9:  BTFSS  03.0
01CA:  INCFSZ 28,W
01CB:  SUBWF  7A,F
01CC:  MOVF   77,W
01CD:  MOVWF  77
01CE:  MOVF   7A,W
01CF:  MOVWF  78
01D0:  CLRF   79
01D1:  CLRF   7A
01D2:  MOVF   7A,W
01D3:  MOVWF  34
01D4:  MOVF   79,W
01D5:  MOVWF  33
01D6:  MOVF   78,W
01D7:  MOVWF  32
01D8:  MOVF   77,W
01D9:  MOVWF  31
01DA:  CLRF   38
01DB:  CLRF   37
01DC:  MOVF   30,W
01DD:  MOVWF  36
01DE:  MOVF   2F,W
01DF:  MOVWF  35
01E0:  MOVF   34,W
01E1:  MOVWF  3C
01E2:  MOVF   33,W
01E3:  MOVWF  3B
01E4:  MOVF   32,W
01E5:  MOVWF  3A
01E6:  MOVF   31,W
01E7:  MOVWF  39
*
0211:  MOVF   7A,W
0212:  MOVWF  32
0213:  MOVF   79,W
0214:  MOVWF  31
0215:  MOVF   78,W
0216:  MOVWF  30
0217:  MOVF   77,W
0218:  MOVWF  2F
0219:  MOVF   27,W
021A:  SUBWF  29,W
021B:  MOVWF  77
021C:  MOVF   2A,W
021D:  MOVWF  7A
021E:  MOVF   28,W
021F:  BTFSS  03.0
0220:  INCFSZ 28,W
0221:  SUBWF  7A,F
0222:  MOVF   77,W
0223:  MOVWF  33
0224:  MOVF   7A,W
0225:  MOVWF  34
0226:  BCF    03.1
0227:  MOVF   32,W
0228:  MOVWF  38
0229:  MOVF   31,W
022A:  MOVWF  37
022B:  MOVF   30,W
022C:  MOVWF  36
022D:  MOVF   2F,W
022E:  MOVWF  35
022F:  CLRF   3C
0230:  CLRF   3B
0231:  MOVF   34,W
0232:  MOVWF  3A
0233:  MOVF   33,W
0234:  MOVWF  39
*
0283:  MOVF   7A,W
0284:  MOVWF  32
0285:  MOVF   79,W
0286:  MOVWF  31
0287:  MOVF   78,W
0288:  MOVWF  30
0289:  MOVF   77,W
028A:  MOVWF  2F
028B:  MOVF   2B,W
028C:  ADDWF  77,W
028D:  MOVWF  77
028E:  MOVF   78,W
028F:  MOVWF  78
0290:  MOVF   2C,W
0291:  BTFSC  03.0
0292:  INCFSZ 2C,W
0293:  ADDWF  78,F
0294:  MOVF   79,W
0295:  MOVWF  79
0296:  MOVLW  00
0297:  BTFSC  03.0
0298:  MOVLW  01
0299:  ADDWF  79,F
029A:  MOVF   7A,W
029B:  MOVWF  7A
029C:  MOVLW  00
029D:  BTFSC  03.0
029E:  MOVLW  01
029F:  ADDWF  7A,F
02A0:  MOVF   78,W
02A1:  MOVWF  79
02A2:  MOVF   77,W
02A3:  MOVWF  78
02A4:  BCF    0A.3
02A5:  BCF    0A.4
02A6:  GOTO   43C (RETURN)
.................... } 
....................  
.................... void main(void){ 
*
03E7:  MOVF   03,W
03E8:  ANDLW  1F
03E9:  MOVWF  03
03EA:  BSF    03.5
03EB:  BSF    1F.0
03EC:  BSF    1F.1
03ED:  BSF    1F.2
03EE:  BCF    1F.3
03EF:  MOVLW  07
03F0:  MOVWF  1C
03F1:  BCF    03.7
03F2:  BCF    03.5
03F3:  CLRF   22
03F4:  CLRF   21
03F5:  CLRF   24
03F6:  CLRF   23
....................    uint16_t ADC_1=0;    //Variable local 
....................    uint16_t T =0;       //Variable local 
....................    lcd_init();          //Inicializa lcd 
03F7:  GOTO   0E0
....................    setup_adc_ports(AN0);           // Configura AN0 como entrada analógica 
03F8:  BSF    03.5
03F9:  BCF    1F.0
03FA:  BSF    1F.1
03FB:  BSF    1F.2
03FC:  BSF    1F.3
....................    setup_adc(ADC_CLOCK_INTERNAL);  // Configura el ADC para usar el reloj interno 
03FD:  BCF    1F.6
03FE:  BCF    03.5
03FF:  BSF    1F.6
0400:  BSF    1F.7
0401:  BSF    03.5
0402:  BSF    1F.7
0403:  BCF    03.5
0404:  BSF    1F.0
....................    lcd_putc("\f");   //Limpiar pantalla LCD 
0405:  MOVLW  04
0406:  BSF    03.6
0407:  MOVWF  0D
0408:  MOVLW  00
0409:  MOVWF  0F
040A:  BCF    03.6
040B:  CALL   164
....................    lcd_gotoxy(1,1);  //Posicionar mensaje 
040C:  MOVLW  01
040D:  MOVWF  2F
040E:  MOVWF  30
040F:  CALL   126
....................    lcd_putc("Temperatura");   //Escribir mensaje 
0410:  MOVLW  05
0411:  BSF    03.6
0412:  MOVWF  0D
0413:  MOVLW  00
0414:  MOVWF  0F
0415:  BCF    03.6
0416:  CALL   164
....................    while(true){ 
....................       set_adc_channel(0);     // Selecciona el canal AN0 del ADC 
0417:  MOVLW  00
0418:  MOVWF  78
0419:  MOVF   1F,W
041A:  ANDLW  C7
041B:  IORWF  78,W
041C:  MOVWF  1F
....................       ADC_1 = read_adc();     //Leer dato ADC 
041D:  BSF    1F.2
041E:  BTFSC  1F.2
041F:  GOTO   41E
0420:  BSF    03.5
0421:  MOVF   1E,W
0422:  BCF    03.5
0423:  MOVWF  21
0424:  MOVF   1E,W
0425:  MOVWF  22
....................       delay_us(20);           //Tiempo de muestreo 
0426:  MOVLW  06
0427:  MOVWF  77
0428:  DECFSZ 77,F
0429:  GOTO   428
042A:  NOP
....................       T=map(ADC_1,0,1023,0,500); //map(dato_que_varia,rango_menor_adc,rango_mayor_adc,rango_menor_a_convertir,rango_mayor_a_convertir) 
042B:  MOVF   22,W
042C:  MOVWF  26
042D:  MOVF   21,W
042E:  MOVWF  25
042F:  CLRF   28
0430:  CLRF   27
0431:  MOVLW  03
0432:  MOVWF  2A
0433:  MOVLW  FF
0434:  MOVWF  29
0435:  CLRF   2C
0436:  CLRF   2B
0437:  MOVLW  01
0438:  MOVWF  2E
0439:  MOVLW  F4
043A:  MOVWF  2D
043B:  GOTO   1BA
043C:  MOVF   79,W
043D:  MOVWF  24
043E:  MOVF   78,W
043F:  MOVWF  23
....................       lcd_gotoxy(1,2);           //Posiciona el mensaje 
0440:  MOVLW  01
0441:  MOVWF  2F
0442:  MOVLW  02
0443:  MOVWF  30
0444:  CALL   126
....................       printf(lcd_putc,"ADC:%4Lu T:%4Ld",ADC_1,T);  //imprime el mensaje 
0445:  MOVLW  0B
0446:  BSF    03.6
0447:  MOVWF  0D
0448:  MOVLW  00
0449:  MOVWF  0F
044A:  BCF    03.0
044B:  MOVLW  04
044C:  BCF    03.6
044D:  MOVWF  25
044E:  GOTO   2A7
044F:  MOVLW  01
0450:  MOVWF  04
0451:  MOVF   22,W
0452:  MOVWF  26
0453:  MOVF   21,W
0454:  MOVWF  25
0455:  GOTO   300
0456:  MOVLW  20
0457:  MOVWF  2E
0458:  CALL   138
0459:  MOVLW  54
045A:  MOVWF  2E
045B:  CALL   138
045C:  MOVLW  3A
045D:  MOVWF  2E
045E:  CALL   138
045F:  MOVLW  02
0460:  MOVWF  04
0461:  MOVF   24,W
0462:  MOVWF  26
0463:  MOVF   23,W
0464:  MOVWF  25
0465:  GOTO   365
0466:  GOTO   417
....................    } 
.................... } 
....................  
0467:  SLEEP

Configuration Fuses:
   Word  1: 3F71   XT NOWDT PUT BROWNOUT NOLVP NOCPD NOWRT NODEBUG NOPROTECT
